target datalayout = "e-m:e-p270:32:32-p271:32:32-p272:64:64-i64:64-i128:128-f80:128-n8:16:32:64-S128"
target triple = "x86_64-pc-linux-gnu"

%"class.std::chrono::time_point" = type { %"class.std::chrono::duration.2" }
%"class.std::chrono::duration.2" = type { i64 }
%"struct.google::logging::internal::LogMessageData" = type { i32, [30001 x i8], %"class.google::LogMessage::LogStream", i32, i32, { i64, i64 }, %union.anon.27, i64, i64, i64, ptr, ptr, i8, i8, %"class.std::thread::id" }
%"class.google::LogMessage::LogStream" = type { %"class.std::basic_ostream.base", %"class.google::base_logging::LogStreamBuf", i64, ptr, %"class.std::basic_ios" }
%"class.std::basic_ostream.base" = type { ptr }
%"class.google::base_logging::LogStreamBuf" = type { %"class.std::basic_streambuf" }
%"class.std::basic_streambuf" = type { ptr, ptr, ptr, ptr, ptr, ptr, ptr, %"class.std::locale" }
%"class.std::locale" = type { ptr }
%"class.std::basic_ios" = type { %"class.std::ios_base", ptr, i8, i8, ptr, ptr, ptr, ptr }
%"class.std::ios_base" = type { ptr, i64, i64, i32, i32, i32, ptr, %"struct.std::ios_base::_Words", [8 x %"struct.std::ios_base::_Words"], i32, ptr, %"class.std::locale" }
%"struct.std::ios_base::_Words" = type { ptr, i64 }
%union.anon.27 = type { ptr }
%"class.std::thread::id" = type { i64 }
%"class.google::LogMessage" = type { ptr, ptr, %"struct.google::LogMessageTime" }
%"struct.google::LogMessageTime" = type { %struct.tm, %"class.std::chrono::time_point", %"class.std::chrono::duration.28", %"class.std::chrono::duration.29" }
%struct.tm = type { i32, i32, i32, i32, i32, i32, i32, i32, i32, i64, ptr }
%"class.std::chrono::duration.28" = type { i64 }
%"class.std::chrono::duration.29" = type { i64 }

@_ZN6googleL14exit_on_dfatalE = internal global i8 1, align 1
@_ZN6googleL21thread_data_availableE = internal thread_local global i8 1, align 1
@_ZN6googleL15thread_msg_dataE = internal thread_local global [30448 x i8] zeroinitializer, align 8
@.str.18 = private unnamed_addr constant [36 x i8] c"*** Check failure stack trace: ***\0A\00", align 1
@stderr = external global ptr, align 8
@_ZN6google19g_logging_fail_funcE = hidden global ptr @abort, align 8
@_ZTVSt15basic_streambufIcSt11char_traitsIcEE = external unnamed_addr constant { [16 x ptr] }, align 8

; Function Attrs: mustprogress nounwind uwtable
define available_externally void @_ZNSoD2Ev(ptr noundef nonnull align 8 dereferenceable(8) %0, ptr noundef %1) unnamed_addr #2 align 2 {
  %3 = alloca ptr, align 8
  %4 = alloca ptr, align 8
  store ptr %0, ptr %3, align 8, !tbaa !25
  store ptr %1, ptr %4, align 8, !tbaa !8
  ret void
}

; Function Attrs: mustprogress nounwind uwtable
define available_externally void @_ZNSt15basic_streambufIcSt11char_traitsIcEED2Ev(ptr noundef nonnull align 8 dereferenceable(64) %0) unnamed_addr #2 align 2 {
  %2 = alloca ptr, align 8
  store ptr %0, ptr %2, align 8, !tbaa !27
  %3 = load ptr, ptr %2, align 8
  store ptr getelementptr inbounds inrange(-16, 112) ({ [16 x ptr] }, ptr @_ZTVSt15basic_streambufIcSt11char_traitsIcEE, i32 0, i32 0, i32 2), ptr %3, align 8, !tbaa !15
  %4 = getelementptr inbounds nuw %"class.std::basic_streambuf", ptr %3, i32 0, i32 7
  call void @_ZNSt6localeD1Ev(ptr noundef nonnull align 8 dereferenceable(8) %4) #5
  ret void
}

; Function Attrs: inlinehint mustprogress nounwind uwtable
define linkonce_odr hidden void @_ZN6google10LogMessage9LogStreamD2Ev(ptr noundef nonnull align 8 dereferenceable(88) %0, ptr noundef %1) unnamed_addr #8 comdat align 2 {
  %3 = alloca ptr, align 8
  %4 = alloca ptr, align 8
  store ptr %0, ptr %3, align 8, !tbaa !3
  store ptr %1, ptr %4, align 8, !tbaa !8
  %5 = load ptr, ptr %3, align 8
  %6 = load ptr, ptr %4, align 8
  %7 = load ptr, ptr %6, align 8
  store ptr %7, ptr %5, align 8, !tbaa !15
  %8 = getelementptr inbounds ptr, ptr %6, i64 3
  %9 = load ptr, ptr %8, align 8
  %10 = load ptr, ptr %5, align 8, !tbaa !15
  %11 = getelementptr i8, ptr %10, i64 -24
  %12 = load i64, ptr %11, align 8
  %13 = getelementptr inbounds i8, ptr %5, i64 %12
  store ptr %9, ptr %13, align 8, !tbaa !15
  %14 = getelementptr inbounds nuw %"class.google::LogMessage::LogStream", ptr %5, i32 0, i32 1
  call void @_ZNSt15basic_streambufIcSt11char_traitsIcEED2Ev(ptr noundef nonnull align 8 dereferenceable(64) %14) #5
  %15 = getelementptr inbounds ptr, ptr %6, i64 1
  call void @_ZNSoD2Ev(ptr noundef nonnull align 8 dereferenceable(8) %5, ptr noundef %15) #5
  ret void
}

; Function Attrs: inlinehint mustprogress nounwind uwtable
define linkonce_odr hidden void @_ZN6google10LogMessage9LogStreamD1Ev(ptr noundef nonnull align 8 dereferenceable(88) %0) unnamed_addr #8 comdat align 2 {
  %2 = alloca ptr, align 8
  store ptr %0, ptr %2, align 8, !tbaa !3
  %3 = load ptr, ptr %2, align 8
  call void @_ZN6google10LogMessage9LogStreamD2Ev(ptr noundef nonnull align 8 dereferenceable(88) %3, ptr noundef @_ZTTN6google10LogMessage9LogStreamE) #5
  %4 = getelementptr inbounds i8, ptr %3, i64 88
  call void @_ZNSt8ios_baseD2Ev(ptr noundef nonnull align 8 dereferenceable(264) %4) #5
  ret void
}

; Function Attrs: mustprogress noreturn uwtable
define void @_ZN6google10LogMessage4FailEv() #17 align 2 {
  %1 = load ptr, ptr @_ZN6google19g_logging_fail_funcE, align 8, !tbaa !8
  call void %1() #37
  unreachable
}

; Function Attrs: inlinehint mustprogress nounwind uwtable
define linkonce_odr hidden void @_ZN6google7logging8internal14LogMessageDataD2Ev(ptr noundef nonnull align 8 dereferenceable(30448) %0) unnamed_addr #8 comdat align 2 {
  %2 = alloca ptr, align 8
  store ptr %0, ptr %2, align 8, !tbaa !122
  %3 = load ptr, ptr %2, align 8
  %4 = getelementptr inbounds nuw %"struct.google::logging::internal::LogMessageData", ptr %3, i32 0, i32 2
  call void @_ZN6google10LogMessage9LogStreamD1Ev(ptr noundef nonnull align 8 dereferenceable(88) %4) #5
  ret void
}

; Function Attrs: mustprogress uwtable
define void @_ZN6google10LogMessageD2Ev(ptr noundef nonnull align 8 dereferenceable(96) %0) unnamed_addr #0 align 2 {
  %2 = alloca ptr, align 8
  %3 = alloca i8, align 1
  %4 = alloca ptr, align 8
  store ptr %0, ptr %2, align 8, !tbaa !128
  %5 = load ptr, ptr %2, align 8
  call void @_ZN6google10LogMessage5FlushEv(ptr noundef nonnull align 8 dereferenceable(96) %5)
  call void @llvm.lifetime.start.p0(i64 1, ptr %3) #5
  %6 = getelementptr inbounds nuw %"class.google::LogMessage", ptr %5, i32 0, i32 1
  %7 = load ptr, ptr %6, align 8, !tbaa !136
  %8 = getelementptr inbounds nuw %"struct.google::logging::internal::LogMessageData", ptr %7, i32 0, i32 3
  %9 = load i32, ptr %8, align 8, !tbaa !140
  %10 = icmp eq i32 %9, 3
  br i1 %10, label %11, label %14

11:                                               ; preds = %1
  %12 = load i8, ptr @_ZN6googleL14exit_on_dfatalE, align 1, !tbaa !76, !range !78, !noundef !79
  %13 = trunc i8 %12 to i1
  br label %14

14:                                               ; preds = %11, %1
  %15 = phi i1 [ false, %1 ], [ %13, %11 ]
  %16 = zext i1 %15 to i8
  store i8 %16, ptr %3, align 1, !tbaa !76
  %17 = getelementptr inbounds nuw %"class.google::LogMessage", ptr %5, i32 0, i32 1
  %18 = load ptr, ptr %17, align 8, !tbaa !136
  %19 = call align 8 ptr @llvm.threadlocal.address.p0(ptr align 8 @_ZN6googleL15thread_msg_dataE)
  %20 = icmp eq ptr %18, %19
  br i1 %20, label %21, label %25

21:                                               ; preds = %14
  %22 = getelementptr inbounds nuw %"class.google::LogMessage", ptr %5, i32 0, i32 1
  %23 = load ptr, ptr %22, align 8, !tbaa !136
  call void @_ZN6google7logging8internal14LogMessageDataD2Ev(ptr noundef nonnull align 8 dereferenceable(30448) %23) #5
  %24 = call align 1 ptr @llvm.threadlocal.address.p0(ptr align 1 @_ZN6googleL21thread_data_availableE)
  store i8 1, ptr %24, align 1, !tbaa !76
  br label %31

25:                                               ; preds = %14
  %26 = getelementptr inbounds nuw %"class.google::LogMessage", ptr %5, i32 0, i32 0
  %27 = load ptr, ptr %26, align 8, !tbaa !130
  %28 = icmp eq ptr %27, null
  br i1 %28, label %30, label %29

29:                                               ; preds = %25
  call void @_ZN6google7logging8internal14LogMessageDataD2Ev(ptr noundef nonnull align 8 dereferenceable(30448) %27) #5
  call void @_ZdlPvm(ptr noundef %27, i64 noundef 30448) #35
  br label %30

30:                                               ; preds = %29, %25
  br label %31

31:                                               ; preds = %30, %21
  %32 = load i8, ptr %3, align 1, !tbaa !76, !range !78, !noundef !79
  %33 = trunc i8 %32 to i1
  br i1 %33, label %34, label %50

34:                                               ; preds = %31
  call void @llvm.lifetime.start.p0(i64 8, ptr %4) #5
  store ptr @.str.18, ptr %4, align 8, !tbaa !9
  %35 = load ptr, ptr @stderr, align 8, !tbaa !187
  %36 = call i32 @fileno(ptr noundef %35) #5
  %37 = load ptr, ptr %4, align 8, !tbaa !9
  %38 = load ptr, ptr %4, align 8, !tbaa !9
  %39 = call i64 @strlen(ptr noundef %38) #21
  %40 = call i64 @write(i32 noundef %36, ptr noundef %37, i64 noundef %39)
  %41 = icmp slt i64 %40, 0
  br i1 %41, label %42, label %43

42:                                               ; preds = %34
  br label %43

43:                                               ; preds = %42, %34
  %44 = call noundef ptr @_ZN6google24glog_internal_namespace_26ProgramInvocationShortNameEv()
  %45 = load ptr, ptr %4, align 8, !tbaa !9
  call void @_ZN6google24glog_internal_namespace_14AlsoErrorWriteENS_11LogSeverityEPKcS3_(i32 noundef 3, ptr noundef %44, ptr noundef %45) #5
  %46 = call noundef i32 @_ZSt19uncaught_exceptionsv() #21
  %47 = icmp eq i32 %46, 0
  br i1 %47, label %48, label %49

48:                                               ; preds = %43
  call void @_ZN6google10LogMessage4FailEv() #37
  unreachable

49:                                               ; preds = %43
  call void @llvm.lifetime.end.p0(i64 8, ptr %4) #5
  br label %50

50:                                               ; preds = %49, %31
  call void @llvm.lifetime.end.p0(i64 1, ptr %3) #5
  ret void
}