; Function Attrs: mustprogress uwtable
define void @_ZN6google10LogMessageD2Ev(ptr noundef nonnull align 8 dereferenceable(96) %0) unnamed_addr #0 align 2 {
  tail call void @_ZN6google10LogMessage5FlushEv(ptr noundef nonnull align 8 dereferenceable(96) %0)
  %2 = getelementptr inbounds nuw i8, ptr %0, i64 8
  %3 = load ptr, ptr %2, align 8, !tbaa !91
  %4 = getelementptr inbounds nuw i8, ptr %3, i64 30360
  %5 = load i32, ptr %4, align 8, !tbaa !99
  %6 = icmp eq i32 %5, 3
  %7 = load i8, ptr @_ZN6googleL14exit_on_dfatalE, align 1, !range !93
  %8 = trunc nuw i8 %7 to i1
  %9 = select i1 %6, i1 %8, i1 false
  %10 = tail call align 8 ptr @llvm.threadlocal.address.p0(ptr align 8 @_ZN6googleL15thread_msg_dataE)
  %11 = icmp eq ptr %3, %10
  br i1 %11, label %12, label %18

12:                                               ; preds = %1
  %13 = getelementptr inbounds nuw i8, ptr %3, i64 30008
  store ptr getelementptr inbounds nuw inrange(-24, 16) (i8, ptr @_ZTVN6google10LogMessage9LogStreamE, i64 24), ptr %13, align 8, !tbaa !3
  %14 = getelementptr inbounds nuw i8, ptr %3, i64 30096
  store ptr getelementptr inbounds nuw inrange(-24, 16) (i8, ptr @_ZTVN6google10LogMessage9LogStreamE, i64 64), ptr %14, align 8, !tbaa !3
  %15 = getelementptr inbounds nuw i8, ptr %3, i64 30016
  store ptr getelementptr inbounds nuw inrange(-16, 112) (i8, ptr @_ZTVSt15basic_streambufIcSt11char_traitsIcEE, i64 16), ptr %15, align 8, !tbaa !3
  %16 = getelementptr inbounds nuw i8, ptr %3, i64 30072
  tail call void @_ZNSt6localeD1Ev(ptr noundef nonnull align 8 dereferenceable(8) %16) #49
  tail call void @_ZNSt8ios_baseD2Ev(ptr noundef nonnull align 8 dereferenceable(264) %14) #49
  %17 = tail call align 1 ptr @llvm.threadlocal.address.p0(ptr align 1 @_ZN6googleL21thread_data_availableE)
  store i8 1, ptr %17, align 1, !tbaa !92
  br label %26

18:                                               ; preds = %1
  %19 = load ptr, ptr %0, align 8, !tbaa !84
  %20 = icmp eq ptr %19, null
  br i1 %20, label %26, label %21

21:                                               ; preds = %18
  %22 = getelementptr inbounds nuw i8, ptr %19, i64 30008
  store ptr getelementptr inbounds nuw inrange(-24, 16) (i8, ptr @_ZTVN6google10LogMessage9LogStreamE, i64 24), ptr %22, align 8, !tbaa !3
  %23 = getelementptr inbounds nuw i8, ptr %19, i64 30096
  store ptr getelementptr inbounds nuw inrange(-24, 16) (i8, ptr @_ZTVN6google10LogMessage9LogStreamE, i64 64), ptr %23, align 8, !tbaa !3
  %24 = getelementptr inbounds nuw i8, ptr %19, i64 30016
  store ptr getelementptr inbounds nuw inrange(-16, 112) (i8, ptr @_ZTVSt15basic_streambufIcSt11char_traitsIcEE, i64 16), ptr %24, align 8, !tbaa !3
  %25 = getelementptr inbounds nuw i8, ptr %19, i64 30072
  tail call void @_ZNSt6localeD1Ev(ptr noundef nonnull align 8 dereferenceable(8) %25) #49
  tail call void @_ZNSt8ios_baseD2Ev(ptr noundef nonnull align 8 dereferenceable(264) %23) #49
  tail call void @_ZdlPvm(ptr noundef nonnull %19, i64 noundef 30448) #51
  br label %26

26:                                               ; preds = %18, %21, %12
  br i1 %9, label %27, label %36

27:                                               ; preds = %26
  %28 = load ptr, ptr @stderr, align 8, !tbaa !79
  %29 = tail call i32 @fileno(ptr noundef %28) #49
  %30 = tail call i64 @write(i32 noundef %29, ptr noundef nonnull @.str.18, i64 noundef 35)
  %31 = tail call noundef ptr @_ZN6google24glog_internal_namespace_26ProgramInvocationShortNameEv()
  tail call void @_ZN6google24glog_internal_namespace_14AlsoErrorWriteENS_11LogSeverityEPKcS3_(i32 noundef 3, ptr noundef %31, ptr noundef nonnull @.str.18) #49
  %32 = tail call noundef i32 @_ZSt19uncaught_exceptionsv() #57
  %33 = icmp eq i32 %32, 0
  br i1 %33, label %34, label %36

34:                                               ; preds = %27
  %35 = load ptr, ptr @_ZN6google19g_logging_fail_funcE, align 8, !tbaa !143
  tail call void %35() #52
  unreachable

36:                                               ; preds = %27, %26
  ret void
}